target datalayout = "e-m:e-p270:32:32-p271:32:32-p272:64:64-i64:64-i128:128-f80:128-n8:16:32:64-S128"
target triple = "x86_64-pc-linux-gnu"

; Function Attrs: mustprogress nounwind uwtable
define linkonce_odr noundef i32 @_Z5qRgbaiiii(i32 noundef %0, i32 noundef %1, i32 noundef %2, i32 noundef %3) #4 comdat {
  %5 = alloca i32, align 4
  %6 = alloca i32, align 4
  %7 = alloca i32, align 4
  %8 = alloca i32, align 4
  store i32 %0, ptr %5, align 4
  store i32 %1, ptr %6, align 4
  store i32 %2, ptr %7, align 4
  store i32 %3, ptr %8, align 4
  %9 = load i32, ptr %8, align 4
  %10 = and i32 %9, 255
  %11 = shl i32 %10, 24
  %12 = load i32, ptr %5, align 4
  %13 = and i32 %12, 255
  %14 = shl i32 %13, 16
  %15 = or i32 %11, %14
  %16 = load i32, ptr %6, align 4
  %17 = and i32 %16, 255
  %18 = shl i32 %17, 8
  %19 = or i32 %15, %18
  %20 = load i32, ptr %7, align 4
  %21 = and i32 %20, 255
  %22 = or i32 %19, %21
  ret i32 %22
}

; Function Attrs: mustprogress nounwind uwtable
define linkonce_odr noundef i32 @_Z6qAlphaj(i32 noundef %0) #4 comdat {
  %2 = alloca i32, align 4
  store i32 %0, ptr %2, align 4
  %3 = load i32, ptr %2, align 4
  %4 = lshr i32 %3, 24
  ret i32 %4
}

; Function Attrs: mustprogress nounwind uwtable
define linkonce_odr noundef i32 @_Z5qBluej(i32 noundef %0) #4 comdat {
  %2 = alloca i32, align 4
  store i32 %0, ptr %2, align 4
  %3 = load i32, ptr %2, align 4
  %4 = and i32 %3, 255
  ret i32 %4
}

; Function Attrs: mustprogress nounwind uwtable
define linkonce_odr noundef i32 @_Z6qGreenj(i32 noundef %0) #4 comdat {
  %2 = alloca i32, align 4
  store i32 %0, ptr %2, align 4
  %3 = load i32, ptr %2, align 4
  %4 = lshr i32 %3, 8
  %5 = and i32 %4, 255
  ret i32 %5
}

; Function Attrs: mustprogress nounwind uwtable
define noundef i32 @_ZN3vcg6mean4wEihihihih(i32 noundef %0, i8 noundef zeroext %1, i32 noundef %2, i8 noundef zeroext %3, i32 noundef %4, i8 noundef zeroext %5, i32 noundef %6, i8 noundef zeroext %7) #4 {
  %9 = alloca i32, align 4
  %10 = alloca i8, align 1
  %11 = alloca i32, align 4
  %12 = alloca i8, align 1
  %13 = alloca i32, align 4
  %14 = alloca i8, align 1
  %15 = alloca i32, align 4
  %16 = alloca i8, align 1
  %17 = alloca i32, align 4
  store i32 %0, ptr %9, align 4
  store i8 %1, ptr %10, align 1
  store i32 %2, ptr %11, align 4
  store i8 %3, ptr %12, align 1
  store i32 %4, ptr %13, align 4
  store i8 %5, ptr %14, align 1
  store i32 %6, ptr %15, align 4
  store i8 %7, ptr %16, align 1
  %18 = load i32, ptr %9, align 4
  %19 = load i8, ptr %10, align 1
  %20 = zext i8 %19 to i32
  %21 = mul nsw i32 %18, %20
  %22 = load i32, ptr %11, align 4
  %23 = load i8, ptr %12, align 1
  %24 = zext i8 %23 to i32
  %25 = mul nsw i32 %22, %24
  %26 = add nsw i32 %21, %25
  %27 = load i32, ptr %13, align 4
  %28 = load i8, ptr %14, align 1
  %29 = zext i8 %28 to i32
  %30 = mul nsw i32 %27, %29
  %31 = add nsw i32 %26, %30
  %32 = load i32, ptr %15, align 4
  %33 = load i8, ptr %16, align 1
  %34 = zext i8 %33 to i32
  %35 = mul nsw i32 %32, %34
  %36 = add nsw i32 %31, %35
  %37 = load i8, ptr %10, align 1
  %38 = zext i8 %37 to i32
  %39 = load i8, ptr %12, align 1
  %40 = zext i8 %39 to i32
  %41 = add nsw i32 %38, %40
  %42 = load i8, ptr %14, align 1
  %43 = zext i8 %42 to i32
  %44 = add nsw i32 %41, %43
  %45 = load i8, ptr %16, align 1
  %46 = zext i8 %45 to i32
  %47 = add nsw i32 %44, %46
  %48 = sdiv i32 %36, %47
  store i32 %48, ptr %17, align 4
  %49 = load i32, ptr %17, align 4
  ret i32 %49
}

; Function Attrs: mustprogress nounwind uwtable
define linkonce_odr noundef i32 @_Z4qRedj(i32 noundef %0) #4 comdat {
  %2 = alloca i32, align 4
  store i32 %0, ptr %2, align 4
  %3 = load i32, ptr %2, align 4
  %4 = lshr i32 %3, 16
  %5 = and i32 %4, 255
  ret i32 %5
}

; Function Attrs: mustprogress uwtable
define noundef i32 @_ZN3vcg11mean4PixelwEjhjhjhjh(i32 noundef %0, i8 noundef zeroext %1, i32 noundef %2, i8 noundef zeroext %3, i32 noundef %4, i8 noundef zeroext %5, i32 noundef %6, i8 noundef zeroext %7) #5 {
  %9 = alloca i32, align 4
  %10 = alloca i8, align 1
  %11 = alloca i32, align 4
  %12 = alloca i8, align 1
  %13 = alloca i32, align 4
  %14 = alloca i8, align 1
  %15 = alloca i32, align 4
  %16 = alloca i8, align 1
  %17 = alloca i32, align 4
  %18 = alloca i32, align 4
  %19 = alloca i32, align 4
  %20 = alloca i32, align 4
  store i32 %0, ptr %9, align 4
  store i8 %1, ptr %10, align 1
  store i32 %2, ptr %11, align 4
  store i8 %3, ptr %12, align 1
  store i32 %4, ptr %13, align 4
  store i8 %5, ptr %14, align 1
  store i32 %6, ptr %15, align 4
  store i8 %7, ptr %16, align 1
  %21 = load i32, ptr %9, align 4
  %22 = call noundef i32 @_Z4qRedj(i32 noundef %21)
  %23 = load i8, ptr %10, align 1
  %24 = load i32, ptr %11, align 4
  %25 = call noundef i32 @_Z4qRedj(i32 noundef %24)
  %26 = load i8, ptr %12, align 1
  %27 = load i32, ptr %13, align 4
  %28 = call noundef i32 @_Z4qRedj(i32 noundef %27)
  %29 = load i8, ptr %14, align 1
  %30 = load i32, ptr %15, align 4
  %31 = call noundef i32 @_Z4qRedj(i32 noundef %30)
  %32 = load i8, ptr %16, align 1
  %33 = call noundef i32 @_ZN3vcg6mean4wEihihihih(i32 noundef %22, i8 noundef zeroext %23, i32 noundef %25, i8 noundef zeroext %26, i32 noundef %28, i8 noundef zeroext %29, i32 noundef %31, i8 noundef zeroext %32)
  store i32 %33, ptr %17, align 4
  %34 = load i32, ptr %9, align 4
  %35 = call noundef i32 @_Z6qGreenj(i32 noundef %34)
  %36 = load i8, ptr %10, align 1
  %37 = load i32, ptr %11, align 4
  %38 = call noundef i32 @_Z6qGreenj(i32 noundef %37)
  %39 = load i8, ptr %12, align 1
  %40 = load i32, ptr %13, align 4
  %41 = call noundef i32 @_Z6qGreenj(i32 noundef %40)
  %42 = load i8, ptr %14, align 1
  %43 = load i32, ptr %15, align 4
  %44 = call noundef i32 @_Z6qGreenj(i32 noundef %43)
  %45 = load i8, ptr %16, align 1
  %46 = call noundef i32 @_ZN3vcg6mean4wEihihihih(i32 noundef %35, i8 noundef zeroext %36, i32 noundef %38, i8 noundef zeroext %39, i32 noundef %41, i8 noundef zeroext %42, i32 noundef %44, i8 noundef zeroext %45)
  store i32 %46, ptr %18, align 4
  %47 = load i32, ptr %9, align 4
  %48 = call noundef i32 @_Z5qBluej(i32 noundef %47)
  %49 = load i8, ptr %10, align 1
  %50 = load i32, ptr %11, align 4
  %51 = call noundef i32 @_Z5qBluej(i32 noundef %50)
  %52 = load i8, ptr %12, align 1
  %53 = load i32, ptr %13, align 4
  %54 = call noundef i32 @_Z5qBluej(i32 noundef %53)
  %55 = load i8, ptr %14, align 1
  %56 = load i32, ptr %15, align 4
  %57 = call noundef i32 @_Z5qBluej(i32 noundef %56)
  %58 = load i8, ptr %16, align 1
  %59 = call noundef i32 @_ZN3vcg6mean4wEihihihih(i32 noundef %48, i8 noundef zeroext %49, i32 noundef %51, i8 noundef zeroext %52, i32 noundef %54, i8 noundef zeroext %55, i32 noundef %57, i8 noundef zeroext %58)
  store i32 %59, ptr %19, align 4
  %60 = load i32, ptr %9, align 4
  %61 = call noundef i32 @_Z6qAlphaj(i32 noundef %60)
  %62 = load i8, ptr %10, align 1
  %63 = load i32, ptr %11, align 4
  %64 = call noundef i32 @_Z6qAlphaj(i32 noundef %63)
  %65 = load i8, ptr %12, align 1
  %66 = load i32, ptr %13, align 4
  %67 = call noundef i32 @_Z6qAlphaj(i32 noundef %66)
  %68 = load i8, ptr %14, align 1
  %69 = load i32, ptr %15, align 4
  %70 = call noundef i32 @_Z6qAlphaj(i32 noundef %69)
  %71 = load i8, ptr %16, align 1
  %72 = call noundef i32 @_ZN3vcg6mean4wEihihihih(i32 noundef %61, i8 noundef zeroext %62, i32 noundef %64, i8 noundef zeroext %65, i32 noundef %67, i8 noundef zeroext %68, i32 noundef %70, i8 noundef zeroext %71)
  store i32 %72, ptr %20, align 4
  %73 = load i32, ptr %17, align 4
  %74 = load i32, ptr %18, align 4
  %75 = load i32, ptr %19, align 4
  %76 = load i32, ptr %20, align 4
  %77 = call noundef i32 @_Z5qRgbaiiii(i32 noundef %73, i32 noundef %74, i32 noundef %75, i32 noundef %76)
  ret i32 %77
}

; Function Attrs: mustprogress uwtable
define void @_ZN3vcg11PullPushMipER6QImageS1_j(ptr noundef nonnull align 8 dereferenceable(32) %0, ptr noundef nonnull align 8 dereferenceable(32) %1, i32 noundef %2) #5 {
  %4 = alloca ptr, align 8
  %5 = alloca ptr, align 8
  %6 = alloca i32, align 4
  %7 = alloca i8, align 1
  %8 = alloca i8, align 1
  %9 = alloca i8, align 1
  %10 = alloca i8, align 1
  %11 = alloca i32, align 4
  %12 = alloca i32, align 4
  store ptr %0, ptr %4, align 8
  store ptr %1, ptr %5, align 8
  store i32 %2, ptr %6, align 4
  store i32 0, ptr %12, align 4
  br label %13

13:                                               ; preds = %127, %3
  %14 = load i32, ptr %12, align 4
  %15 = load ptr, ptr %5, align 8
  %16 = call noundef i32 @_ZNK6QImage6heightEv(ptr noundef nonnull align 8 dereferenceable(32) %15)
  %17 = icmp slt i32 %14, %16
  br i1 %17, label %18, label %130

18:                                               ; preds = %13
  store i32 0, ptr %11, align 4
  br label %19

19:                                               ; preds = %123, %18
  %20 = load i32, ptr %11, align 4
  %21 = load ptr, ptr %5, align 8
  %22 = call noundef i32 @_ZNK6QImage5widthEv(ptr noundef nonnull align 8 dereferenceable(32) %21)
  %23 = icmp slt i32 %20, %22
  br i1 %23, label %24, label %126

24:                                               ; preds = %19
  %25 = load ptr, ptr %4, align 8
  %26 = load i32, ptr %11, align 4
  %27 = mul nsw i32 %26, 2
  %28 = load i32, ptr %12, align 4
  %29 = mul nsw i32 %28, 2
  %30 = call noundef i32 @_ZNK6QImage5pixelEii(ptr noundef nonnull align 8 dereferenceable(32) %25, i32 noundef %27, i32 noundef %29)
  %31 = load i32, ptr %6, align 4
  %32 = icmp eq i32 %30, %31
  br i1 %32, label %33, label %34

33:                                               ; preds = %24
  store i8 0, ptr %7, align 1
  br label %35

34:                                               ; preds = %24
  store i8 -1, ptr %7, align 1
  br label %35

35:                                               ; preds = %34, %33
  %36 = load ptr, ptr %4, align 8
  %37 = load i32, ptr %11, align 4
  %38 = mul nsw i32 %37, 2
  %39 = add nsw i32 %38, 1
  %40 = load i32, ptr %12, align 4
  %41 = mul nsw i32 %40, 2
  %42 = call noundef i32 @_ZNK6QImage5pixelEii(ptr noundef nonnull align 8 dereferenceable(32) %36, i32 noundef %39, i32 noundef %41)
  %43 = load i32, ptr %6, align 4
  %44 = icmp eq i32 %42, %43
  br i1 %44, label %45, label %46

45:                                               ; preds = %35
  store i8 0, ptr %8, align 1
  br label %47

46:                                               ; preds = %35
  store i8 -1, ptr %8, align 1
  br label %47

47:                                               ; preds = %46, %45
  %48 = load ptr, ptr %4, align 8
  %49 = load i32, ptr %11, align 4
  %50 = mul nsw i32 %49, 2
  %51 = load i32, ptr %12, align 4
  %52 = mul nsw i32 %51, 2
  %53 = add nsw i32 %52, 1
  %54 = call noundef i32 @_ZNK6QImage5pixelEii(ptr noundef nonnull align 8 dereferenceable(32) %48, i32 noundef %50, i32 noundef %53)
  %55 = load i32, ptr %6, align 4
  %56 = icmp eq i32 %54, %55
  br i1 %56, label %57, label %58

57:                                               ; preds = %47
  store i8 0, ptr %9, align 1
  br label %59

58:                                               ; preds = %47
  store i8 -1, ptr %9, align 1
  br label %59

59:                                               ; preds = %58, %57
  %60 = load ptr, ptr %4, align 8
  %61 = load i32, ptr %11, align 4
  %62 = mul nsw i32 %61, 2
  %63 = add nsw i32 %62, 1
  %64 = load i32, ptr %12, align 4
  %65 = mul nsw i32 %64, 2
  %66 = add nsw i32 %65, 1
  %67 = call noundef i32 @_ZNK6QImage5pixelEii(ptr noundef nonnull align 8 dereferenceable(32) %60, i32 noundef %63, i32 noundef %66)
  %68 = load i32, ptr %6, align 4
  %69 = icmp eq i32 %67, %68
  br i1 %69, label %70, label %71

70:                                               ; preds = %59
  store i8 0, ptr %10, align 1
  br label %72

71:                                               ; preds = %59
  store i8 -1, ptr %10, align 1
  br label %72

72:                                               ; preds = %71, %70
  %73 = load i8, ptr %7, align 1
  %74 = zext i8 %73 to i32
  %75 = load i8, ptr %8, align 1
  %76 = zext i8 %75 to i32
  %77 = add nsw i32 %74, %76
  %78 = load i8, ptr %9, align 1
  %79 = zext i8 %78 to i32
  %80 = add nsw i32 %77, %79
  %81 = load i8, ptr %10, align 1
  %82 = zext i8 %81 to i32
  %83 = add nsw i32 %80, %82
  %84 = icmp sgt i32 %83, 0
  br i1 %84, label %85, label %122

85:                                               ; preds = %72
  %86 = load ptr, ptr %5, align 8
  %87 = load i32, ptr %11, align 4
  %88 = load i32, ptr %12, align 4
  %89 = load ptr, ptr %4, align 8
  %90 = load i32, ptr %11, align 4
  %91 = mul nsw i32 %90, 2
  %92 = load i32, ptr %12, align 4
  %93 = mul nsw i32 %92, 2
  %94 = call noundef i32 @_ZNK6QImage5pixelEii(ptr noundef nonnull align 8 dereferenceable(32) %89, i32 noundef %91, i32 noundef %93)
  %95 = load i8, ptr %7, align 1
  %96 = load ptr, ptr %4, align 8
  %97 = load i32, ptr %11, align 4
  %98 = mul nsw i32 %97, 2
  %99 = add nsw i32 %98, 1
  %100 = load i32, ptr %12, align 4
  %101 = mul nsw i32 %100, 2
  %102 = call noundef i32 @_ZNK6QImage5pixelEii(ptr noundef nonnull align 8 dereferenceable(32) %96, i32 noundef %99, i32 noundef %101)
  %103 = load i8, ptr %8, align 1
  %104 = load ptr, ptr %4, align 8
  %105 = load i32, ptr %11, align 4
  %106 = mul nsw i32 %105, 2
  %107 = load i32, ptr %12, align 4
  %108 = mul nsw i32 %107, 2
  %109 = add nsw i32 %108, 1
  %110 = call noundef i32 @_ZNK6QImage5pixelEii(ptr noundef nonnull align 8 dereferenceable(32) %104, i32 noundef %106, i32 noundef %109)
  %111 = load i8, ptr %9, align 1
  %112 = load ptr, ptr %4, align 8
  %113 = load i32, ptr %11, align 4
  %114 = mul nsw i32 %113, 2
  %115 = add nsw i32 %114, 1
  %116 = load i32, ptr %12, align 4
  %117 = mul nsw i32 %116, 2
  %118 = add nsw i32 %117, 1
  %119 = call noundef i32 @_ZNK6QImage5pixelEii(ptr noundef nonnull align 8 dereferenceable(32) %112, i32 noundef %115, i32 noundef %118)
  %120 = load i8, ptr %10, align 1
  %121 = call noundef i32 @_ZN3vcg11mean4PixelwEjhjhjhjh(i32 noundef %94, i8 noundef zeroext %95, i32 noundef %102, i8 noundef zeroext %103, i32 noundef %110, i8 noundef zeroext %111, i32 noundef %119, i8 noundef zeroext %120)
  call void @_ZN6QImage8setPixelEiij(ptr noundef nonnull align 8 dereferenceable(32) %86, i32 noundef %87, i32 noundef %88, i32 noundef %121)
  br label %122

122:                                              ; preds = %85, %72
  br label %123

123:                                              ; preds = %122
  %124 = load i32, ptr %11, align 4
  %125 = add nsw i32 %124, 1
  store i32 %125, ptr %11, align 4
  br label %19, !llvm.loop !48

126:                                              ; preds = %19
  br label %127

127:                                              ; preds = %126
  %128 = load i32, ptr %12, align 4
  %129 = add nsw i32 %128, 1
  store i32 %129, ptr %12, align 4
  br label %13, !llvm.loop !49

130:                                              ; preds = %13
  ret void
}